target datalayout = "e-m:e-p270:32:32-p271:32:32-p272:64:64-i64:64-i128:128-f80:128-n8:16:32:64-S128"
target triple = "x86_64-unknown-linux-gnu"

%class.rational = type { %class.mpq }
%class.mpq = type { %class.mpz, %class.mpz }
%class.mpz = type { i32, i8, ptr }
%class.vector.17 = type { ptr }
%"class.nla::nex_mul" = type { %"class.nla::nex", %class.rational, %class.vector.17 }
%"class.nla::nex" = type { ptr }
%"class.nla::nex_pow" = type <{ ptr, i32, [4 x i8] }>

@_ZN8rational13g_mpq_managerE = external global ptr, align 8

; Function Attrs: mustprogress nounwind uwtable
define linkonce_odr hidden noundef i32 @_ZN11mpz_managerILb1EE4signERK3mpz(ptr noundef nonnull align 8 dereferenceable(16) %a) #5 comdat align 2 {
entry:
  %a.addr = alloca ptr, align 8
  store ptr %a, ptr %a.addr, align 8
  %0 = load ptr, ptr %a.addr, align 8
  %m_val = getelementptr inbounds %class.mpz, ptr %0, i32 0, i32 0
  %1 = load i32, ptr %m_val, align 8
  ret i32 %1
}

; Function Attrs: mustprogress nounwind uwtable
define linkonce_odr hidden noundef zeroext i1 @_ZN11mpz_managerILb1EE8is_smallERK3mpz(ptr noundef nonnull align 8 dereferenceable(16) %a) #5 comdat align 2 {
entry:
  %a.addr = alloca ptr, align 8
  store ptr %a, ptr %a.addr, align 8
  %0 = load ptr, ptr %a.addr, align 8
  %m_kind = getelementptr inbounds %class.mpz, ptr %0, i32 0, i32 1
  %bf.load = load i8, ptr %m_kind, align 4
  %bf.clear = and i8 %bf.load, 1
  %bf.cast = zext i8 %bf.clear to i32
  %cmp = icmp eq i32 %bf.cast, 0
  ret i1 %cmp
}

; Function Attrs: mustprogress uwtable
define linkonce_odr hidden noundef zeroext i1 @_ZN11mpz_managerILb1EE7is_zeroERK3mpz(ptr noundef nonnull align 8 dereferenceable(16) %a) #4 comdat align 2 {
entry:
  %a.addr = alloca ptr, align 8
  store ptr %a, ptr %a.addr, align 8
  %0 = load ptr, ptr %a.addr, align 8
  %call = call noundef i32 @_ZN11mpz_managerILb1EE4signERK3mpz(ptr noundef nonnull align 8 dereferenceable(16) %0)
  %cmp = icmp eq i32 %call, 0
  ret i1 %cmp
}

; Function Attrs: mustprogress nounwind uwtable
define linkonce_odr hidden noundef zeroext i1 @_ZN11mpz_managerILb1EE6is_oneERK3mpz(ptr noundef nonnull align 8 dereferenceable(16) %a) #5 comdat align 2 {
entry:
  %a.addr = alloca ptr, align 8
  store ptr %a, ptr %a.addr, align 8
  %0 = load ptr, ptr %a.addr, align 8
  %call = call noundef zeroext i1 @_ZN11mpz_managerILb1EE8is_smallERK3mpz(ptr noundef nonnull align 8 dereferenceable(16) %0)
  br i1 %call, label %land.rhs, label %land.end

land.rhs:                                         ; preds = %entry
  %1 = load ptr, ptr %a.addr, align 8
  %m_val = getelementptr inbounds %class.mpz, ptr %1, i32 0, i32 0
  %2 = load i32, ptr %m_val, align 8
  %cmp = icmp eq i32 %2, 1
  br label %land.end

land.end:                                         ; preds = %land.rhs, %entry
  %3 = phi i1 [ false, %entry ], [ %cmp, %land.rhs ]
  ret i1 %3
}

; Function Attrs: mustprogress uwtable
define linkonce_odr hidden noundef zeroext i1 @_ZN11mpq_managerILb1EE7is_zeroERK3mpz(ptr noundef nonnull align 8 dereferenceable(16) %a) #4 comdat align 2 {
entry:
  %a.addr = alloca ptr, align 8
  store ptr %a, ptr %a.addr, align 8
  %0 = load ptr, ptr %a.addr, align 8
  %call = call noundef zeroext i1 @_ZN11mpz_managerILb1EE7is_zeroERK3mpz(ptr noundef nonnull align 8 dereferenceable(16) %0)
  ret i1 %call
}

; Function Attrs: mustprogress uwtable
define linkonce_odr hidden noundef zeroext i1 @_ZN11mpq_managerILb1EE6is_oneERK3mpz(ptr noundef nonnull align 8 dereferenceable(16) %a) #4 comdat align 2 {
entry:
  %a.addr = alloca ptr, align 8
  store ptr %a, ptr %a.addr, align 8
  %0 = load ptr, ptr %a.addr, align 8
  %call = call noundef zeroext i1 @_ZN11mpz_managerILb1EE6is_oneERK3mpz(ptr noundef nonnull align 8 dereferenceable(16) %0)
  ret i1 %call
}

; Function Attrs: mustprogress uwtable
define linkonce_odr hidden noundef zeroext i1 @_ZN11mpq_managerILb1EE7is_zeroERK3mpq(ptr noundef nonnull align 8 dereferenceable(32) %a) #4 comdat align 2 {
entry:
  %a.addr = alloca ptr, align 8
  store ptr %a, ptr %a.addr, align 8
  %0 = load ptr, ptr %a.addr, align 8
  %m_num = getelementptr inbounds %class.mpq, ptr %0, i32 0, i32 0
  %call = call noundef zeroext i1 @_ZN11mpq_managerILb1EE7is_zeroERK3mpz(ptr noundef nonnull align 8 dereferenceable(16) %m_num)
  ret i1 %call
}

; Function Attrs: mustprogress uwtable
define linkonce_odr hidden noundef zeroext i1 @_ZN11mpq_managerILb1EE6is_oneERK3mpq(ptr noundef nonnull align 8 dereferenceable(32) %a) #4 comdat align 2 {
entry:
  %a.addr = alloca ptr, align 8
  store ptr %a, ptr %a.addr, align 8
  %0 = load ptr, ptr %a.addr, align 8
  %m_num = getelementptr inbounds %class.mpq, ptr %0, i32 0, i32 0
  %call = call noundef zeroext i1 @_ZN11mpq_managerILb1EE6is_oneERK3mpz(ptr noundef nonnull align 8 dereferenceable(16) %m_num)
  br i1 %call, label %land.rhs, label %land.end

land.rhs:                                         ; preds = %entry
  %1 = load ptr, ptr %a.addr, align 8
  %m_den = getelementptr inbounds %class.mpq, ptr %1, i32 0, i32 1
  %call1 = call noundef zeroext i1 @_ZN11mpq_managerILb1EE6is_oneERK3mpz(ptr noundef nonnull align 8 dereferenceable(16) %m_den)
  br label %land.end

land.end:                                         ; preds = %land.rhs, %entry
  %2 = phi i1 [ false, %entry ], [ %call1, %land.rhs ]
  ret i1 %2
}

; Function Attrs: mustprogress nounwind uwtable
define linkonce_odr hidden noundef nonnull align 8 dereferenceable(728) ptr @_ZN8rational1mEv() #5 comdat align 2 {
entry:
  %0 = load ptr, ptr @_ZN8rational13g_mpq_managerE, align 8
  ret ptr %0
}

; Function Attrs: mustprogress nounwind uwtable
define linkonce_odr hidden noundef nonnull align 8 dereferenceable(12) ptr @_ZN6vectorIN3nla7nex_powELb1EjEixEj(ptr noundef nonnull align 8 dereferenceable(8) %this, i32 noundef %idx) #5 comdat align 2 {
entry:
  %this.addr = alloca ptr, align 8
  %idx.addr = alloca i32, align 4
  store ptr %this, ptr %this.addr, align 8
  store i32 %idx, ptr %idx.addr, align 4
  %this1 = load ptr, ptr %this.addr, align 8
  %m_data = getelementptr inbounds %class.vector.17, ptr %this1, i32 0, i32 0
  %0 = load ptr, ptr %m_data, align 8
  %1 = load i32, ptr %idx.addr, align 4
  %idxprom = zext i32 %1 to i64
  %arrayidx = getelementptr inbounds %"class.nla::nex_pow", ptr %0, i64 %idxprom
  ret ptr %arrayidx
}

; Function Attrs: mustprogress uwtable
define linkonce_odr hidden noundef zeroext i1 @_ZNK8rational7is_zeroEv(ptr noundef nonnull align 8 dereferenceable(32) %this) #4 comdat align 2 {
entry:
  %this.addr = alloca ptr, align 8
  store ptr %this, ptr %this.addr, align 8
  %this1 = load ptr, ptr %this.addr, align 8
  %call = call noundef nonnull align 8 dereferenceable(728) ptr @_ZN8rational1mEv()
  %m_val = getelementptr inbounds %class.rational, ptr %this1, i32 0, i32 0
  %call2 = call noundef zeroext i1 @_ZN11mpq_managerILb1EE7is_zeroERK3mpq(ptr noundef nonnull align 8 dereferenceable(32) %m_val)
  ret i1 %call2
}

; Function Attrs: mustprogress nounwind uwtable
define linkonce_odr hidden noundef nonnull align 8 dereferenceable(8) ptr @_ZN3nla7nex_pow1eEv(ptr noundef nonnull align 8 dereferenceable(12) %this) #5 comdat align 2 {
entry:
  %this.addr = alloca ptr, align 8
  store ptr %this, ptr %this.addr, align 8
  %this1 = load ptr, ptr %this.addr, align 8
  %m_e = getelementptr inbounds %"class.nla::nex_pow", ptr %this1, i32 0, i32 0
  ret ptr %m_e
}

; Function Attrs: mustprogress uwtable
define linkonce_odr hidden noundef zeroext i1 @_ZNK8rational6is_oneEv(ptr noundef nonnull align 8 dereferenceable(32) %this) #4 comdat align 2 {
entry:
  %this.addr = alloca ptr, align 8
  store ptr %this, ptr %this.addr, align 8
  %this1 = load ptr, ptr %this.addr, align 8
  %call = call noundef nonnull align 8 dereferenceable(728) ptr @_ZN8rational1mEv()
  %m_val = getelementptr inbounds %class.rational, ptr %this1, i32 0, i32 0
  %call2 = call noundef zeroext i1 @_ZN11mpq_managerILb1EE6is_oneERK3mpq(ptr noundef nonnull align 8 dereferenceable(32) %m_val)
  ret i1 %call2
}

; Function Attrs: mustprogress nounwind uwtable
define linkonce_odr hidden noundef i32 @_ZNK3nla7nex_pow3powEv(ptr noundef nonnull align 8 dereferenceable(12) %this) #5 comdat align 2 {
entry:
  %this.addr = alloca ptr, align 8
  store ptr %this, ptr %this.addr, align 8
  %this1 = load ptr, ptr %this.addr, align 8
  %m_power = getelementptr inbounds %"class.nla::nex_pow", ptr %this1, i32 0, i32 1
  %0 = load i32, ptr %m_power, align 8
  ret i32 %0
}

; Function Attrs: mustprogress uwtable
define linkonce_odr hidden noundef nonnull align 8 dereferenceable(12) ptr @_ZN3nla7nex_mulixEj(ptr noundef nonnull align 8 dereferenceable(48) %this, i32 noundef %j) #4 comdat align 2 {
entry:
  %this.addr = alloca ptr, align 8
  %j.addr = alloca i32, align 4
  store ptr %this, ptr %this.addr, align 8
  store i32 %j, ptr %j.addr, align 4
  %this1 = load ptr, ptr %this.addr, align 8
  %m_children = getelementptr inbounds %"class.nla::nex_mul", ptr %this1, i32 0, i32 2
  %0 = load i32, ptr %j.addr, align 4
  %call = call noundef nonnull align 8 dereferenceable(12) ptr @_ZN6vectorIN3nla7nex_powELb1EjEixEj(ptr noundef nonnull align 8 dereferenceable(8) %m_children, i32 noundef %0)
  ret ptr %call
}

; Function Attrs: mustprogress uwtable
define hidden noundef ptr @_ZN3nla11nex_creator12simplify_mulEPNS_7nex_mulE(ptr noundef nonnull align 8 dereferenceable(176) %this, ptr noundef %e) #4 align 2 {
entry:
  %retval = alloca ptr, align 8
  %this.addr = alloca ptr, align 8
  %e.addr = alloca ptr, align 8
  %coeff = alloca ptr, align 8
  store ptr %this, ptr %this.addr, align 8
  store ptr %e, ptr %e.addr, align 8
  %this1 = load ptr, ptr %this.addr, align 8
  %0 = load ptr, ptr %e.addr, align 8
  %m_coeff = getelementptr inbounds %"class.nla::nex_mul", ptr %0, i32 0, i32 1
  store ptr %m_coeff, ptr %coeff, align 8
  %1 = load ptr, ptr %e.addr, align 8
  %m_children = getelementptr inbounds %"class.nla::nex_mul", ptr %1, i32 0, i32 2
  %2 = load ptr, ptr %coeff, align 8
  call void @_ZN3nla11nex_creator24simplify_children_of_mulER6vectorINS_7nex_powELb1EjER8rational(ptr noundef nonnull align 8 dereferenceable(176) %this1, ptr noundef nonnull align 8 dereferenceable(8) %m_children, ptr noundef nonnull align 8 dereferenceable(32) %2)
  %3 = load ptr, ptr %e.addr, align 8
  %vtable = load ptr, ptr %3, align 8
  %vfn = getelementptr inbounds ptr, ptr %vtable, i64 0
  %4 = load ptr, ptr %vfn, align 8
  %call = call noundef i32 %4(ptr noundef nonnull align 8 dereferenceable(48) %3)
  %cmp = icmp eq i32 %call, 1
  br i1 %cmp, label %land.lhs.true, label %if.end

land.lhs.true:                                    ; preds = %entry
  %5 = load ptr, ptr %e.addr, align 8
  %call2 = call noundef nonnull align 8 dereferenceable(12) ptr @_ZN3nla7nex_mulixEj(ptr noundef nonnull align 8 dereferenceable(48) %5, i32 noundef 0)
  %call3 = call noundef i32 @_ZNK3nla7nex_pow3powEv(ptr noundef nonnull align 8 dereferenceable(12) %call2)
  %cmp4 = icmp eq i32 %call3, 1
  br i1 %cmp4, label %land.lhs.true5, label %if.end

land.lhs.true5:                                   ; preds = %land.lhs.true
  %6 = load ptr, ptr %coeff, align 8
  %call6 = call noundef zeroext i1 @_ZNK8rational6is_oneEv(ptr noundef nonnull align 8 dereferenceable(32) %6)
  br i1 %call6, label %if.then, label %if.end

if.then:                                          ; preds = %land.lhs.true5
  %7 = load ptr, ptr %e.addr, align 8
  %call7 = call noundef nonnull align 8 dereferenceable(12) ptr @_ZN3nla7nex_mulixEj(ptr noundef nonnull align 8 dereferenceable(48) %7, i32 noundef 0)
  %call8 = call noundef nonnull align 8 dereferenceable(8) ptr @_ZN3nla7nex_pow1eEv(ptr noundef nonnull align 8 dereferenceable(12) %call7)
  %8 = load ptr, ptr %call8, align 8
  store ptr %8, ptr %retval, align 8
  br label %return

if.end:                                           ; preds = %land.lhs.true5, %land.lhs.true, %entry
  %9 = load ptr, ptr %e.addr, align 8
  %vtable9 = load ptr, ptr %9, align 8
  %vfn10 = getelementptr inbounds ptr, ptr %vtable9, i64 0
  %10 = load ptr, ptr %vfn10, align 8
  %call11 = call noundef i32 %10(ptr noundef nonnull align 8 dereferenceable(48) %9)
  %cmp12 = icmp eq i32 %call11, 0
  br i1 %cmp12, label %if.then17, label %lor.lhs.false

lor.lhs.false:                                    ; preds = %if.end
  %11 = load ptr, ptr %e.addr, align 8
  %vtable13 = load ptr, ptr %11, align 8
  %vfn14 = getelementptr inbounds ptr, ptr %vtable13, i64 12
  %12 = load ptr, ptr %vfn14, align 8
  %call15 = call noundef nonnull align 8 dereferenceable(32) ptr %12(ptr noundef nonnull align 8 dereferenceable(48) %11)
  %call16 = call noundef zeroext i1 @_ZNK8rational7is_zeroEv(ptr noundef nonnull align 8 dereferenceable(32) %call15)
  br i1 %call16, label %if.then17, label %if.end22

if.then17:                                        ; preds = %lor.lhs.false, %if.end
  %13 = load ptr, ptr %e.addr, align 8
  %vtable18 = load ptr, ptr %13, align 8
  %vfn19 = getelementptr inbounds ptr, ptr %vtable18, i64 12
  %14 = load ptr, ptr %vfn19, align 8
  %call20 = call noundef nonnull align 8 dereferenceable(32) ptr %14(ptr noundef nonnull align 8 dereferenceable(48) %13)
  %call21 = call noundef ptr @_ZN3nla11nex_creator9mk_scalarERK8rational(ptr noundef nonnull align 8 dereferenceable(176) %this1, ptr noundef nonnull align 8 dereferenceable(32) %call20)
  store ptr %call21, ptr %retval, align 8
  br label %return

if.end22:                                         ; preds = %lor.lhs.false
  %15 = load ptr, ptr %e.addr, align 8
  store ptr %15, ptr %retval, align 8
  br label %return

return:                                           ; preds = %if.end22, %if.then17, %if.then
  %16 = load ptr, ptr %retval, align 8
  ret ptr %16
}