; Function Attrs: mustprogress uwtable
define hidden noundef ptr @_ZN3nla11nex_creator12simplify_mulEPNS_7nex_mulE(ptr noundef nonnull align 8 dereferenceable(176) %this, ptr noundef %e) local_unnamed_addr #3 align 2 {
entry:
  %m_coeff = getelementptr inbounds i8, ptr %e, i64 8
  %m_children = getelementptr inbounds i8, ptr %e, i64 40
  tail call void @_ZN3nla11nex_creator24simplify_children_of_mulER6vectorINS_7nex_powELb1EjER8rational(ptr noundef nonnull align 8 dereferenceable(176) %this, ptr noundef nonnull align 8 dereferenceable(8) %m_children, ptr noundef nonnull align 8 dereferenceable(32) %m_coeff)
  %vtable = load ptr, ptr %e, align 8
  %0 = load ptr, ptr %vtable, align 8
  %call = tail call noundef i32 %0(ptr noundef nonnull align 8 dereferenceable(48) %e)
  %cmp = icmp eq i32 %call, 1
  br i1 %cmp, label %land.lhs.true, label %if.end

land.lhs.true:                                    ; preds = %entry
  %1 = load ptr, ptr %m_children, align 8
  %m_power.i = getelementptr inbounds i8, ptr %1, i64 8
  %2 = load i32, ptr %m_power.i, align 8
  %cmp4 = icmp eq i32 %2, 1
  br i1 %cmp4, label %land.lhs.true5, label %if.end

land.lhs.true5:                                   ; preds = %land.lhs.true
  %m_kind.i.i.i.i.i = getelementptr inbounds i8, ptr %e, i64 12
  %bf.load.i.i.i.i.i = load i8, ptr %m_kind.i.i.i.i.i, align 4
  %bf.clear.i.i.i.i.i = and i8 %bf.load.i.i.i.i.i, 1
  %cmp.i.i.i.i.i = icmp eq i8 %bf.clear.i.i.i.i.i, 0
  %3 = load i32, ptr %m_coeff, align 8
  %cmp.i.i.i.i = icmp eq i32 %3, 1
  %4 = select i1 %cmp.i.i.i.i.i, i1 %cmp.i.i.i.i, i1 false
  br i1 %4, label %_ZNK8rational6is_oneEv.exit, label %if.end

_ZNK8rational6is_oneEv.exit:                      ; preds = %land.lhs.true5
  %m_den.i.i = getelementptr inbounds i8, ptr %e, i64 24
  %m_kind.i.i.i2.i.i = getelementptr inbounds i8, ptr %e, i64 28
  %bf.load.i.i.i3.i.i = load i8, ptr %m_kind.i.i.i2.i.i, align 4
  %bf.clear.i.i.i4.i.i = and i8 %bf.load.i.i.i3.i.i, 1
  %cmp.i.i.i5.i.i = icmp eq i8 %bf.clear.i.i.i4.i.i, 0
  %5 = load i32, ptr %m_den.i.i, align 8
  %cmp.i.i6.i.i = icmp eq i32 %5, 1
  %6 = select i1 %cmp.i.i.i5.i.i, i1 %cmp.i.i6.i.i, i1 false
  br i1 %6, label %if.then, label %if.end

if.then:                                          ; preds = %_ZNK8rational6is_oneEv.exit
  %7 = load ptr, ptr %1, align 8
  br label %return

if.end:                                           ; preds = %land.lhs.true5, %_ZNK8rational6is_oneEv.exit, %land.lhs.true, %entry
  %vtable9 = load ptr, ptr %e, align 8
  %8 = load ptr, ptr %vtable9, align 8
  %call11 = tail call noundef i32 %8(ptr noundef nonnull align 8 dereferenceable(48) %e)
  %cmp12 = icmp eq i32 %call11, 0
  br i1 %cmp12, label %if.then17, label %lor.lhs.false

lor.lhs.false:                                    ; preds = %if.end
  %vtable13 = load ptr, ptr %e, align 8
  %vfn14 = getelementptr inbounds i8, ptr %vtable13, i64 96
  %9 = load ptr, ptr %vfn14, align 8
  %call15 = tail call noundef nonnull align 8 dereferenceable(32) ptr %9(ptr noundef nonnull align 8 dereferenceable(48) %e)
  %10 = load i32, ptr %call15, align 8
  %cmp.i.i.i.i11 = icmp eq i32 %10, 0
  br i1 %cmp.i.i.i.i11, label %if.then17, label %return

if.then17:                                        ; preds = %lor.lhs.false, %if.end
  %vtable18 = load ptr, ptr %e, align 8
  %vfn19 = getelementptr inbounds i8, ptr %vtable18, i64 96
  %11 = load ptr, ptr %vfn19, align 8
  %call20 = tail call noundef nonnull align 8 dereferenceable(32) ptr %11(ptr noundef nonnull align 8 dereferenceable(48) %e)
  %call21 = tail call noundef ptr @_ZN3nla11nex_creator9mk_scalarERK8rational(ptr noundef nonnull align 8 dereferenceable(176) %this, ptr noundef nonnull align 8 dereferenceable(32) %call20)
  br label %return

return:                                           ; preds = %lor.lhs.false, %if.then17, %if.then
  %retval.0 = phi ptr [ %7, %if.then ], [ %call21, %if.then17 ], [ %e, %lor.lhs.false ]
  ret ptr %retval.0
}